target datalayout = "e-m:e-p270:32:32-p271:32:32-p272:64:64-i64:64-i128:128-f80:128-n8:16:32:64-S128"
target triple = "x86_64-unknown-linux-gnu"

@jiffies = external dso_local global i64, section ".data..cacheline_aligned", align 64
@.str = private unnamed_addr constant [27 x i8] c"include/net/request_sock.h\00", align 1

; Function Attrs: fn_ret_thunk_extern mustprogress nofree norecurse nosync nounwind null_pointer_is_valid willreturn memory(argmem: write)
define dso_local void @reqsk_queue_alloc(ptr nocapture noundef writeonly %0) local_unnamed_addr #0 align 16 {
  %2 = getelementptr inbounds i8, ptr %0, i64 40
  %3 = getelementptr inbounds i8, ptr %0, i64 60
  store i32 0, ptr %3, align 4
  %4 = getelementptr inbounds i8, ptr %0, i64 24
  store ptr null, ptr %4, align 8
  tail call void @llvm.memset.p0.i64(ptr noundef align 8 dereferenceable(16) %2, i8 0, i64 16, i1 false)
  ret void
}

; Function Attrs: fn_ret_thunk_extern nounwind null_pointer_is_valid
define dso_local void @reqsk_fastopen_remove(ptr noundef %0, ptr noundef %1, i1 noundef zeroext %2) local_unnamed_addr #1 align 16 {
  %4 = getelementptr inbounds i8, ptr %1, i64 96
  %5 = load ptr, ptr %4, align 8
  %6 = getelementptr inbounds i8, ptr %5, i64 1000
  %7 = getelementptr inbounds i8, ptr %0, i64 2248
  store volatile ptr null, ptr %7, align 8
  %8 = getelementptr inbounds i8, ptr %5, i64 1016
  tail call void @_raw_spin_lock_bh(ptr noundef %8) #4
  %9 = getelementptr inbounds i8, ptr %5, i64 1020
  %10 = load i32, ptr %9, align 4
  %11 = add i32 %10, -1
  store i32 %11, ptr %9, align 4
  %12 = getelementptr inbounds i8, ptr %1, i64 272
  store i8 0, ptr %12, align 8
  %13 = getelementptr inbounds i8, ptr %1, i64 200
  %14 = load ptr, ptr %13, align 8
  %15 = icmp eq ptr %14, null
  br i1 %15, label %16, label %73

16:                                               ; preds = %3
  br i1 %2, label %17, label %21

17:                                               ; preds = %16
  %18 = getelementptr inbounds i8, ptr %5, i64 18
  %19 = load volatile i8, ptr %18, align 2
  %20 = icmp eq i8 %19, 10
  br i1 %20, label %57, label %21

21:                                               ; preds = %17, %16
  tail call void @_raw_spin_unlock_bh(ptr noundef %8) #4
  %22 = getelementptr inbounds i8, ptr %1, i64 128
  %23 = tail call i32 asm sideeffect ".pushsection .smp_locks,\22a\22\0A.balign 4\0A.long 671f - .\0A.popsection\0A671:\0A\09lock; xaddl $0, $1\0A", "=r,=*m,0,*m,~{memory},~{cc},~{dirflag},~{fpsr},~{flags}"(ptr elementtype(i32) %22, i32 -1, ptr elementtype(i32) %22) #4, !srcloc !5
  %24 = icmp eq i32 %23, 1
  br i1 %24, label %25, label %26

25:                                               ; preds = %21
  tail call void asm sideeffect "", "~{memory},~{dirflag},~{fpsr},~{flags}"() #4, !srcloc !6
  br label %29

26:                                               ; preds = %21
  %27 = icmp sgt i32 %23, 0
  br i1 %27, label %29, label %28, !prof !7

28:                                               ; preds = %26
  tail call void @refcount_warn_saturate(ptr noundef %22, i32 noundef 3) #4
  br label %29

29:                                               ; preds = %28, %26, %25
  br i1 %24, label %30, label %74

30:                                               ; preds = %29
  %31 = load volatile i32, ptr %22, align 4
  %32 = icmp eq i32 %31, 0
  br i1 %32, label %34, label %33, !prof !7

33:                                               ; preds = %30
  tail call void asm sideeffect "670: nop\0A\09.pushsection .discard.instr_begin\0A\09.long 670b - .\0A\09.popsection\0A\09", "i,~{dirflag},~{fpsr},~{flags}"(i32 670) #4, !srcloc !8
  tail call void asm sideeffect "1:\09.byte 0x0f, 0x0b\0A.pushsection __bug_table,\22aw\22\0A2:\09.long 1b - .\09# bug_entry::bug_addr\0A\09.long ${0:c} - .\09# bug_entry::file\0A\09.word ${1:c}\09# bug_entry::line\0A\09.word ${2:c}\09# bug_entry::flags\0A\09.org 2b+${3:c}\0A.popsection\0A998:\0A\09.pushsection .discard.reachable\0A\09.long 998b\0A\09.popsection\0A\09", "i,i,i,i,~{dirflag},~{fpsr},~{flags}"(ptr nonnull @.str, i32 128, i32 2307, i64 12) #4, !srcloc !9
  tail call void asm sideeffect "671: nop\0A\09.pushsection .discard.instr_end\0A\09.long 671b - .\0A\09.popsection\0A\09", "i,~{dirflag},~{fpsr},~{flags}"(i32 671) #4, !srcloc !10
  br label %34

34:                                               ; preds = %33, %30
  %35 = getelementptr inbounds i8, ptr %1, i64 192
  %36 = load ptr, ptr %35, align 8
  %37 = getelementptr inbounds i8, ptr %36, i64 48
  %38 = load ptr, ptr %37, align 8
  tail call void %38(ptr noundef %1) #4
  %39 = load ptr, ptr %4, align 8
  %40 = icmp eq ptr %39, null
  br i1 %40, label %51, label %41

41:                                               ; preds = %34
  %42 = getelementptr inbounds i8, ptr %39, i64 128
  %43 = tail call i32 asm sideeffect ".pushsection .smp_locks,\22a\22\0A.balign 4\0A.long 671f - .\0A.popsection\0A671:\0A\09lock; xaddl $0, $1\0A", "=r,=*m,0,*m,~{memory},~{cc},~{dirflag},~{fpsr},~{flags}"(ptr elementtype(i32) %42, i32 -1, ptr elementtype(i32) %42) #4, !srcloc !5
  %44 = icmp eq i32 %43, 1
  br i1 %44, label %45, label %46

45:                                               ; preds = %41
  tail call void asm sideeffect "", "~{memory},~{dirflag},~{fpsr},~{flags}"() #4, !srcloc !6
  br label %49

46:                                               ; preds = %41
  %47 = icmp sgt i32 %43, 0
  br i1 %47, label %49, label %48, !prof !7

48:                                               ; preds = %46
  tail call void @refcount_warn_saturate(ptr noundef %42, i32 noundef 3) #4
  br label %49

49:                                               ; preds = %48, %46, %45
  br i1 %44, label %50, label %51

50:                                               ; preds = %49
  tail call void @sk_free(ptr noundef nonnull %39) #4
  br label %51

51:                                               ; preds = %50, %49, %34
  %52 = getelementptr inbounds i8, ptr %1, i64 208
  %53 = load ptr, ptr %52, align 8
  tail call void @kfree(ptr noundef %53) #4
  %54 = load ptr, ptr %35, align 8
  %55 = getelementptr inbounds i8, ptr %54, i64 8
  %56 = load ptr, ptr %55, align 8
  tail call void @kmem_cache_free(ptr noundef %56, ptr noundef %1) #4
  br label %74

57:                                               ; preds = %17
  %58 = load volatile i64, ptr @jiffies, align 64
  %59 = add i64 %58, 60000
  %60 = getelementptr inbounds i8, ptr %1, i64 168
  store i64 %59, ptr %60, align 8
  %61 = load ptr, ptr %6, align 8
  %62 = icmp eq ptr %61, null
  br i1 %62, label %67, label %63

63:                                               ; preds = %57
  %64 = getelementptr inbounds i8, ptr %5, i64 1008
  %65 = load ptr, ptr %64, align 8
  %66 = getelementptr inbounds i8, ptr %65, i64 136
  br label %67

67:                                               ; preds = %63, %57
  %68 = phi ptr [ %66, %63 ], [ %6, %57 ]
  store ptr %1, ptr %68, align 8
  %69 = getelementptr inbounds i8, ptr %1, i64 136
  store ptr null, ptr %69, align 8
  %70 = getelementptr inbounds i8, ptr %5, i64 1008
  store ptr %1, ptr %70, align 8
  %71 = load i32, ptr %9, align 4
  %72 = add i32 %71, 1
  store i32 %72, ptr %9, align 4
  br label %73

73:                                               ; preds = %67, %3
  tail call void @_raw_spin_unlock_bh(ptr noundef %8) #4
  br label %74

74:                                               ; preds = %73, %51, %29
  ret void
}

; Function Attrs: null_pointer_is_valid
declare dso_local void @_raw_spin_lock_bh(ptr noundef) local_unnamed_addr #2 section ".spinlock.text"

; Function Attrs: null_pointer_is_valid
declare dso_local void @_raw_spin_unlock_bh(ptr noundef) local_unnamed_addr #2 section ".spinlock.text"

; Function Attrs: null_pointer_is_valid
declare dso_local void @refcount_warn_saturate(ptr noundef, i32 noundef) local_unnamed_addr #2

; Function Attrs: null_pointer_is_valid
declare dso_local void @kfree(ptr noundef) local_unnamed_addr #2

; Function Attrs: null_pointer_is_valid
declare dso_local void @kmem_cache_free(ptr noundef, ptr noundef) local_unnamed_addr #2

; Function Attrs: null_pointer_is_valid
declare dso_local void @sk_free(ptr noundef) local_unnamed_addr #2

; Function Attrs: nocallback nofree nounwind willreturn memory(argmem: write)
declare void @llvm.memset.p0.i64(ptr nocapture writeonly, i8, i64, i1 immarg) #3


!llvm.module.flags = !{!0, !1, !2, !3, !4}

!0 = !{i32 1, !"wchar_size", i32 2}
!1 = !{i32 8, !"cf-protection-branch", i32 1}
!2 = !{i32 4, !"function_return_thunk_extern", i32 1}
!3 = !{i32 4, !"indirect_branch_cs_prefix", i32 1}
!4 = !{i32 4, !"SkipRaxSetup", i32 1}
!5 = !{i64 2148824427, i64 2148824466, i64 2148824487, i64 2148824524, i64 2148824547, i64 2148824556}
!6 = !{i64 2150350777}
!7 = !{!"branch_weights", i32 2000, i32 1}
!8 = !{i64 2157691719, i64 2157691528, i64 2157691580, i64 2157691626, i64 2157691654}
!9 = !{i64 2157691793, i64 2157691822, i64 2157691868, i64 2157691926, i64 2157691980, i64 2157692034, i64 2157692089, i64 2157692120, i64 2157692428, i64 2157692434, i64 2157692481, i64 2157692504, i64 2157692530}
!10 = !{i64 2157692989, i64 2157692800, i64 2157692850, i64 2157692896, i64 2157692924}
